; Function Attrs: nofree norecurse nosync nounwind memory(readwrite, inaccessiblemem: none) uwtable
define internal void @flush_mp3on4(ptr noundef readonly captures(none) %0) #3 {
  %2 = getelementptr inbounds nuw i8, ptr %0, i64 32
  %3 = load ptr, ptr %2, align 8, !tbaa !4
  %4 = load i32, ptr %3, align 8, !tbaa !70
  %5 = icmp sgt i32 %4, 0
  br i1 %5, label %.lr.ph, label %._crit_edge

.lr.ph:                                           ; preds = %1
  %6 = getelementptr inbounds nuw i8, ptr %3, i64 16
  br label %7

7:                                                ; preds = %.lr.ph, %7
  %indvars.iv = phi i64 [ 0, %.lr.ph ], [ %indvars.iv.next, %7 ]
  %8 = getelementptr inbounds nuw [5 x ptr], ptr %6, i64 0, i64 %indvars.iv
  %9 = load ptr, ptr %8, align 8, !tbaa !77
  %10 = getelementptr inbounds nuw i8, ptr %9, i64 1168
  tail call void @llvm.memset.p0.i64(ptr noundef nonnull align 16 dereferenceable(8192) %10, i8 0, i64 8192, i1 false)
  %11 = getelementptr inbounds nuw i8, ptr %9, i64 18592
  tail call void @llvm.memset.p0.i64(ptr noundef nonnull align 16 dereferenceable(4608) %11, i8 0, i64 4608, i1 false)
  %12 = getelementptr inbounds nuw i8, ptr %9, i64 1088
  store i32 0, ptr %12, align 16, !tbaa !64
  %13 = getelementptr inbounds nuw i8, ptr %9, i64 32932
  store i32 0, ptr %13, align 4, !tbaa !65
  %indvars.iv.next = add nuw nsw i64 %indvars.iv, 1
  %14 = load i32, ptr %3, align 8, !tbaa !70
  %15 = sext i32 %14 to i64
  %16 = icmp slt i64 %indvars.iv.next, %15
  br i1 %16, label %7, label %._crit_edge, !llvm.loop !87

._crit_edge:                                      ; preds = %7, %1
  ret void
}